target datalayout = "e-m:e-p270:32:32-p271:32:32-p272:64:64-i64:64-i128:128-f80:128-n8:16:32:64-S128"
target triple = "x86_64-pc-linux-gnu"

%struct.lua_TValue = type { %union.Value, [1 x i32], i32 }
%union.Value = type { ptr }

; Function Attrs: mustprogress uwtable
define internal noundef i32 @_ZL12luauF_typeofP9lua_StateP10lua_TValueS2_iS2_i(ptr noundef %0, ptr noundef %1, ptr noundef %2, i32 noundef %3, ptr noundef %4, i32 noundef %5) #3 {
  %7 = alloca i32, align 4
  %8 = alloca ptr, align 8
  %9 = alloca ptr, align 8
  %10 = alloca ptr, align 8
  %11 = alloca i32, align 4
  %12 = alloca ptr, align 8
  %13 = alloca i32, align 4
  %14 = alloca ptr, align 8
  %15 = alloca ptr, align 8
  store ptr %0, ptr %8, align 8, !tbaa !4
  store ptr %1, ptr %9, align 8, !tbaa !9
  store ptr %2, ptr %10, align 8, !tbaa !9
  store i32 %3, ptr %11, align 4, !tbaa !11
  store ptr %4, ptr %12, align 8, !tbaa !9
  store i32 %5, ptr %13, align 4, !tbaa !11
  %16 = load i32, ptr %13, align 4, !tbaa !11
  %17 = icmp sge i32 %16, 1
  br i1 %17, label %18, label %31

18:                                               ; preds = %6
  %19 = load i32, ptr %11, align 4, !tbaa !11
  %20 = icmp sle i32 %19, 1
  br i1 %20, label %21, label %31

21:                                               ; preds = %18
  call void @llvm.lifetime.start.p0(i64 8, ptr %14) #17
  %22 = load ptr, ptr %8, align 8, !tbaa !4
  %23 = load ptr, ptr %10, align 8, !tbaa !9
  %24 = call noundef ptr @_Z19luaT_objtypenamestrP9lua_StatePK10lua_TValue(ptr noundef %22, ptr noundef %23)
  store ptr %24, ptr %14, align 8, !tbaa !37
  call void @llvm.lifetime.start.p0(i64 8, ptr %15) #17
  %25 = load ptr, ptr %9, align 8, !tbaa !9
  store ptr %25, ptr %15, align 8, !tbaa !9
  %26 = load ptr, ptr %14, align 8, !tbaa !37
  %27 = load ptr, ptr %15, align 8, !tbaa !9
  %28 = getelementptr inbounds nuw %struct.lua_TValue, ptr %27, i32 0, i32 0
  store ptr %26, ptr %28, align 8, !tbaa !15
  %29 = load ptr, ptr %15, align 8, !tbaa !9
  %30 = getelementptr inbounds nuw %struct.lua_TValue, ptr %29, i32 0, i32 2
  store i32 5, ptr %30, align 4, !tbaa !13
  call void @llvm.lifetime.end.p0(i64 8, ptr %15) #17
  store i32 1, ptr %7, align 4
  call void @llvm.lifetime.end.p0(i64 8, ptr %14) #17
  br label %32

31:                                               ; preds = %18, %6
  store i32 -1, ptr %7, align 4
  br label %32

32:                                               ; preds = %31, %21
  %33 = load i32, ptr %7, align 4
  ret i32 %33
}