; Function Attrs: mustprogress uwtable
define internal noundef range(i32 -1, 2) i32 @_ZL12luauF_typeofP9lua_StateP10lua_TValueS2_iS2_i(ptr noundef %0, ptr noundef writeonly captures(none) %1, ptr noundef %2, i32 noundef %3, ptr readnone captures(none) %4, i32 noundef %5) #8 {
  %7 = icmp sgt i32 %5, 0
  %8 = icmp slt i32 %3, 2
  %or.cond = and i1 %8, %7
  br i1 %or.cond, label %9, label %12

9:                                                ; preds = %6
  %10 = tail call noundef ptr @_Z19luaT_objtypenamestrP9lua_StatePK10lua_TValue(ptr noundef %0, ptr noundef %2)
  store ptr %10, ptr %1, align 8, !tbaa !9
  %11 = getelementptr inbounds nuw i8, ptr %1, i64 12
  store i32 5, ptr %11, align 4, !tbaa !4
  br label %12

12:                                               ; preds = %6, %9
  %.0 = phi i32 [ 1, %9 ], [ -1, %6 ]
  ret i32 %.0
}